; Function Attrs: mustprogress uwtable
define noundef zeroext i1 @_ZNK10open_spiel17morpion_solitaire12MorpionState10IsTerminalEv(ptr noundef nonnull align 8 dereferenceable(880) %0) unnamed_addr #3 align 2 {
  tail call void @_ZNK10open_spiel17morpion_solitaire12MorpionState16getAllValidMovesEv(ptr noundef nonnull align 8 dereferenceable(880) %0)
  %2 = getelementptr inbounds nuw i8, ptr %0, i64 760
  %3 = load ptr, ptr %2, align 8
  %4 = getelementptr inbounds i8, ptr %0, i64 768
  %5 = load ptr, ptr %4, align 8
  %6 = icmp eq ptr %3, %5
  ret i1 %6
}